target datalayout = "e-m:e-p270:32:32-p271:32:32-p272:64:64-i64:64-i128:128-f80:128-n8:16:32:64-S128"
target triple = "x86_64-pc-linux-gnu"

%"class.llvm::ConstantRange" = type { %"class.llvm::APInt", %"class.llvm::APInt" }
%"class.llvm::APInt" = type <{ %union.anon, i32, [4 x i8] }>
%union.anon = type { i64 }
%"class.llvm::ArrayRef.170" = type { ptr, i64 }
%"class.llvm::GEPNoWrapFlags" = type { i32 }
%"class.std::optional.171" = type { %"struct.std::_Optional_base.172" }
%"struct.std::_Optional_base.172" = type { %"struct.std::_Optional_payload.174" }
%"struct.std::_Optional_payload.174" = type { %"struct.std::_Optional_payload.base", [7 x i8] }
%"struct.std::_Optional_payload.base" = type { %"struct.std::_Optional_payload_base.base" }
%"struct.std::_Optional_payload_base.base" = type { %"union.std::_Optional_payload_base<llvm::ConstantRange>::_Storage", i8 }
%"union.std::_Optional_payload_base<llvm::ConstantRange>::_Storage" = type { %"class.llvm::ConstantRange" }
%"struct.std::_Optional_payload_base.176" = type { %"union.std::_Optional_payload_base<llvm::ConstantRange>::_Storage", i8, [7 x i8] }

; Function Attrs: mustprogress nounwind uwtable
define linkonce_odr hidden noundef zeroext i1 @_ZNK4llvm5APInt12isSingleWordEv(ptr noundef nonnull align 8 dereferenceable(12) %0) #0 comdat align 2 {
  %2 = alloca ptr, align 8
  store ptr %0, ptr %2, align 8
  %3 = load ptr, ptr %2, align 8
  %4 = getelementptr inbounds nuw %"class.llvm::APInt", ptr %3, i32 0, i32 1
  %5 = load i32, ptr %4, align 8
  %6 = icmp ule i32 %5, 64
  ret i1 %6
}

; Function Attrs: mustprogress nounwind uwtable
define linkonce_odr hidden noundef zeroext i1 @_ZNK4llvm5APInt12needsCleanupEv(ptr noundef nonnull align 8 dereferenceable(12) %0) #0 comdat align 2 {
  %2 = alloca ptr, align 8
  store ptr %0, ptr %2, align 8
  %3 = load ptr, ptr %2, align 8
  %4 = call noundef zeroext i1 @_ZNK4llvm5APInt12isSingleWordEv(ptr noundef nonnull align 8 dereferenceable(12) %3)
  %5 = xor i1 %4, true
  ret i1 %5
}

; Function Attrs: mustprogress nounwind uwtable
define linkonce_odr hidden void @_ZN4llvm5APIntD2Ev(ptr noundef nonnull align 8 dereferenceable(12) %0) unnamed_addr #0 comdat align 2 {
  %2 = alloca ptr, align 8
  store ptr %0, ptr %2, align 8
  %3 = load ptr, ptr %2, align 8
  %4 = call noundef zeroext i1 @_ZNK4llvm5APInt12needsCleanupEv(ptr noundef nonnull align 8 dereferenceable(12) %3)
  br i1 %4, label %5, label %11

5:                                                ; preds = %1
  %6 = getelementptr inbounds nuw %"class.llvm::APInt", ptr %3, i32 0, i32 0
  %7 = load ptr, ptr %6, align 8
  %8 = icmp eq ptr %7, null
  br i1 %8, label %10, label %9

9:                                                ; preds = %5
  call void @_ZdaPv(ptr noundef %7) #17
  br label %10

10:                                               ; preds = %9, %5
  br label %11

11:                                               ; preds = %10, %1
  ret void
}

; Function Attrs: mustprogress nounwind uwtable
define linkonce_odr hidden void @_ZNSt22_Optional_payload_baseIN4llvm13ConstantRangeEE8_StorageIS1_Lb0EED2Ev(ptr noundef nonnull align 8 dereferenceable(32) %0) unnamed_addr #0 comdat align 2 {
  %2 = alloca ptr, align 8
  store ptr %0, ptr %2, align 8
  ret void
}

; Function Attrs: mustprogress nounwind uwtable
define linkonce_odr hidden void @_ZN4llvm13ConstantRangeD2Ev(ptr noundef nonnull align 8 dereferenceable(32) %0) unnamed_addr #0 comdat align 2 {
  %2 = alloca ptr, align 8
  store ptr %0, ptr %2, align 8
  %3 = load ptr, ptr %2, align 8
  %4 = getelementptr inbounds nuw %"class.llvm::ConstantRange", ptr %3, i32 0, i32 1
  call void @_ZN4llvm5APIntD2Ev(ptr noundef nonnull align 8 dereferenceable(12) %4) #10
  %5 = getelementptr inbounds nuw %"class.llvm::ConstantRange", ptr %3, i32 0, i32 0
  call void @_ZN4llvm5APIntD2Ev(ptr noundef nonnull align 8 dereferenceable(12) %5) #10
  ret void
}

; Function Attrs: mustprogress nounwind uwtable
define linkonce_odr hidden void @_ZNSt22_Optional_payload_baseIN4llvm13ConstantRangeEE8_StorageIS1_Lb0EEC2Ev(ptr noundef nonnull align 8 dereferenceable(32) %0) unnamed_addr #0 comdat align 2 {
  %2 = alloca ptr, align 8
  store ptr %0, ptr %2, align 8
  ret void
}

; Function Attrs: mustprogress nounwind uwtable
define linkonce_odr hidden void @_ZNSt22_Optional_payload_baseIN4llvm13ConstantRangeEED2Ev(ptr noundef nonnull align 8 dereferenceable(33) %0) unnamed_addr #0 comdat align 2 {
  %2 = alloca ptr, align 8
  store ptr %0, ptr %2, align 8
  %3 = load ptr, ptr %2, align 8
  %4 = getelementptr inbounds nuw %"struct.std::_Optional_payload_base.176", ptr %3, i32 0, i32 0
  call void @_ZNSt22_Optional_payload_baseIN4llvm13ConstantRangeEE8_StorageIS1_Lb0EED2Ev(ptr noundef nonnull align 8 dereferenceable(32) %4) #10
  ret void
}

; Function Attrs: mustprogress nounwind uwtable
define linkonce_odr hidden void @_ZNSt22_Optional_payload_baseIN4llvm13ConstantRangeEE10_M_destroyEv(ptr noundef nonnull align 8 dereferenceable(33) %0) #0 comdat align 2 {
  %2 = alloca ptr, align 8
  store ptr %0, ptr %2, align 8
  %3 = load ptr, ptr %2, align 8
  %4 = getelementptr inbounds nuw %"struct.std::_Optional_payload_base.176", ptr %3, i32 0, i32 1
  store i8 0, ptr %4, align 8
  %5 = getelementptr inbounds nuw %"struct.std::_Optional_payload_base.176", ptr %3, i32 0, i32 0
  call void @_ZN4llvm13ConstantRangeD2Ev(ptr noundef nonnull align 8 dereferenceable(32) %5) #10
  ret void
}

; Function Attrs: mustprogress nounwind uwtable
define linkonce_odr hidden void @_ZNSt22_Optional_payload_baseIN4llvm13ConstantRangeEEC2Ev(ptr noundef nonnull align 8 dereferenceable(33) %0) unnamed_addr #0 comdat align 2 {
  %2 = alloca ptr, align 8
  store ptr %0, ptr %2, align 8
  %3 = load ptr, ptr %2, align 8
  %4 = getelementptr inbounds nuw %"struct.std::_Optional_payload_base.176", ptr %3, i32 0, i32 0
  call void @_ZNSt22_Optional_payload_baseIN4llvm13ConstantRangeEE8_StorageIS1_Lb0EEC2Ev(ptr noundef nonnull align 8 dereferenceable(32) %4) #10
  %5 = getelementptr inbounds nuw %"struct.std::_Optional_payload_base.176", ptr %3, i32 0, i32 1
  store i8 0, ptr %5, align 8
  ret void
}

; Function Attrs: mustprogress nounwind uwtable
define linkonce_odr hidden void @_ZNSt17_Optional_payloadIN4llvm13ConstantRangeELb1ELb0ELb0EED2Ev(ptr noundef nonnull align 8 dereferenceable(33) %0) unnamed_addr #0 comdat align 2 {
  %2 = alloca ptr, align 8
  store ptr %0, ptr %2, align 8
  %3 = load ptr, ptr %2, align 8
  call void @_ZNSt22_Optional_payload_baseIN4llvm13ConstantRangeEED2Ev(ptr noundef nonnull align 8 dereferenceable(33) %3) #10
  ret void
}

; Function Attrs: mustprogress nounwind uwtable
define linkonce_odr hidden void @_ZNSt22_Optional_payload_baseIN4llvm13ConstantRangeEE8_M_resetEv(ptr noundef nonnull align 8 dereferenceable(33) %0) #0 comdat align 2 {
  %2 = alloca ptr, align 8
  store ptr %0, ptr %2, align 8
  %3 = load ptr, ptr %2, align 8
  %4 = getelementptr inbounds nuw %"struct.std::_Optional_payload_base.176", ptr %3, i32 0, i32 1
  %5 = load i8, ptr %4, align 8
  %6 = trunc i8 %5 to i1
  br i1 %6, label %7, label %8

7:                                                ; preds = %1
  call void @_ZNSt22_Optional_payload_baseIN4llvm13ConstantRangeEE10_M_destroyEv(ptr noundef nonnull align 8 dereferenceable(33) %3) #10
  br label %8

8:                                                ; preds = %7, %1
  ret void
}

; Function Attrs: mustprogress nounwind uwtable
define linkonce_odr hidden void @_ZNSt17_Optional_payloadIN4llvm13ConstantRangeELb1ELb0ELb0EEC2Ev(ptr noundef nonnull align 8 dereferenceable(33) %0) unnamed_addr #0 comdat align 2 {
  %2 = alloca ptr, align 8
  store ptr %0, ptr %2, align 8
  %3 = load ptr, ptr %2, align 8
  call void @_ZNSt22_Optional_payload_baseIN4llvm13ConstantRangeEEC2Ev(ptr noundef nonnull align 8 dereferenceable(33) %3) #10
  ret void
}

; Function Attrs: mustprogress nounwind uwtable
define linkonce_odr hidden noundef ptr @_ZN4llvm16cast_convert_valINS_8ConstantEPNS_5ValueES3_E4doitEPKS2_(ptr noundef %0) #0 comdat align 2 {
  %2 = alloca ptr, align 8
  store ptr %0, ptr %2, align 8
  %3 = load ptr, ptr %2, align 8
  ret ptr %3
}

; Function Attrs: mustprogress nounwind uwtable
define linkonce_odr hidden void @_ZNSt17_Optional_payloadIN4llvm13ConstantRangeELb0ELb0ELb0EED2Ev(ptr noundef nonnull align 8 dereferenceable(33) %0) unnamed_addr #0 comdat align 2 {
  %2 = alloca ptr, align 8
  store ptr %0, ptr %2, align 8
  %3 = load ptr, ptr %2, align 8
  call void @_ZNSt22_Optional_payload_baseIN4llvm13ConstantRangeEE8_M_resetEv(ptr noundef nonnull align 8 dereferenceable(33) %3) #10
  call void @_ZNSt17_Optional_payloadIN4llvm13ConstantRangeELb1ELb0ELb0EED2Ev(ptr noundef nonnull align 8 dereferenceable(33) %3) #10
  ret void
}

; Function Attrs: mustprogress nounwind uwtable
define linkonce_odr hidden void @_ZNSt17_Optional_payloadIN4llvm13ConstantRangeELb0ELb0ELb0EEC2Ev(ptr noundef nonnull align 8 dereferenceable(33) %0) unnamed_addr #0 comdat align 2 {
  %2 = alloca ptr, align 8
  store ptr %0, ptr %2, align 8
  %3 = load ptr, ptr %2, align 8
  call void @_ZNSt17_Optional_payloadIN4llvm13ConstantRangeELb1ELb0ELb0EEC2Ev(ptr noundef nonnull align 8 dereferenceable(33) %3) #10
  ret void
}

; Function Attrs: mustprogress nounwind uwtable
define linkonce_odr hidden void @_ZN4llvm14GEPNoWrapFlagsC2Ej(ptr noundef nonnull align 4 dereferenceable(4) %0, i32 noundef %1) unnamed_addr #0 comdat align 2 {
  %3 = alloca ptr, align 8
  %4 = alloca i32, align 4
  store ptr %0, ptr %3, align 8
  store i32 %1, ptr %4, align 4
  %5 = load ptr, ptr %3, align 8
  %6 = getelementptr inbounds nuw %"class.llvm::GEPNoWrapFlags", ptr %5, i32 0, i32 0
  %7 = load i32, ptr %4, align 4
  store i32 %7, ptr %6, align 4
  ret void
}

; Function Attrs: mustprogress nounwind uwtable
define linkonce_odr hidden noundef ptr @_ZN4llvm8CastInfoINS_8ConstantEPNS_5ValueEvE6doCastERKS3_(ptr noundef nonnull align 8 dereferenceable(8) %0) #0 comdat align 2 {
  %2 = alloca ptr, align 8
  store ptr %0, ptr %2, align 8
  %3 = load ptr, ptr %2, align 8
  %4 = load ptr, ptr %3, align 8
  %5 = call noundef ptr @_ZN4llvm16cast_convert_valINS_8ConstantEPNS_5ValueES3_E4doitEPKS2_(ptr noundef %4)
  ret ptr %5
}

; Function Attrs: mustprogress nounwind uwtable
define linkonce_odr hidden void @_ZNSt14_Optional_baseIN4llvm13ConstantRangeELb0ELb0EED2Ev(ptr noundef nonnull align 8 dereferenceable(40) %0) unnamed_addr #0 comdat align 2 {
  %2 = alloca ptr, align 8
  store ptr %0, ptr %2, align 8
  %3 = load ptr, ptr %2, align 8
  %4 = getelementptr inbounds nuw %"struct.std::_Optional_base.172", ptr %3, i32 0, i32 0
  call void @_ZNSt17_Optional_payloadIN4llvm13ConstantRangeELb0ELb0ELb0EED2Ev(ptr noundef nonnull align 8 dereferenceable(33) %4) #10
  ret void
}

; Function Attrs: mustprogress nounwind uwtable
define linkonce_odr hidden void @_ZNSt14_Optional_baseIN4llvm13ConstantRangeELb0ELb0EEC2Ev(ptr noundef nonnull align 8 dereferenceable(40) %0) unnamed_addr #0 comdat align 2 {
  %2 = alloca ptr, align 8
  store ptr %0, ptr %2, align 8
  %3 = load ptr, ptr %2, align 8
  %4 = getelementptr inbounds nuw %"struct.std::_Optional_base.172", ptr %3, i32 0, i32 0
  call void @_ZNSt17_Optional_payloadIN4llvm13ConstantRangeELb0ELb0ELb0EEC2Ev(ptr noundef nonnull align 8 dereferenceable(33) %4) #10
  ret void
}

; Function Attrs: mustprogress nounwind uwtable
define linkonce_odr hidden i32 @_ZN4llvm14GEPNoWrapFlags14noUnsignedWrapEv() #0 comdat align 2 {
  %1 = alloca %"class.llvm::GEPNoWrapFlags", align 4
  call void @_ZN4llvm14GEPNoWrapFlagsC2Ej(ptr noundef nonnull align 4 dereferenceable(4) %1, i32 noundef 4)
  %2 = getelementptr inbounds nuw %"class.llvm::GEPNoWrapFlags", ptr %1, i32 0, i32 0
  %3 = load i32, ptr %2, align 4
  ret i32 %3
}

; Function Attrs: mustprogress nounwind uwtable
define linkonce_odr hidden i32 @_ZN4llvm14GEPNoWrapFlags20noUnsignedSignedWrapEv() #0 comdat align 2 {
  %1 = alloca %"class.llvm::GEPNoWrapFlags", align 4
  call void @_ZN4llvm14GEPNoWrapFlagsC2Ej(ptr noundef nonnull align 4 dereferenceable(4) %1, i32 noundef 2)
  %2 = getelementptr inbounds nuw %"class.llvm::GEPNoWrapFlags", ptr %1, i32 0, i32 0
  %3 = load i32, ptr %2, align 4
  ret i32 %3
}

; Function Attrs: mustprogress nounwind uwtable
define linkonce_odr hidden noundef nonnull align 4 dereferenceable(4) ptr @_ZN4llvm14GEPNoWrapFlagsoRES0_(ptr noundef nonnull align 4 dereferenceable(4) %0, i32 %1) #0 comdat align 2 {
  %3 = alloca %"class.llvm::GEPNoWrapFlags", align 4
  %4 = alloca ptr, align 8
  %5 = getelementptr inbounds nuw %"class.llvm::GEPNoWrapFlags", ptr %3, i32 0, i32 0
  store i32 %1, ptr %5, align 4
  store ptr %0, ptr %4, align 8
  %6 = load ptr, ptr %4, align 8
  %7 = getelementptr inbounds nuw %"class.llvm::GEPNoWrapFlags", ptr %3, i32 0, i32 0
  %8 = load i32, ptr %7, align 4
  %9 = getelementptr inbounds nuw %"class.llvm::GEPNoWrapFlags", ptr %6, i32 0, i32 0
  %10 = load i32, ptr %9, align 4
  %11 = or i32 %10, %8
  store i32 %11, ptr %9, align 4
  ret ptr %6
}

; Function Attrs: mustprogress nounwind uwtable
define linkonce_odr hidden i32 @_ZN4llvm14GEPNoWrapFlags8inBoundsEv() #0 comdat align 2 {
  %1 = alloca %"class.llvm::GEPNoWrapFlags", align 4
  call void @_ZN4llvm14GEPNoWrapFlagsC2Ej(ptr noundef nonnull align 4 dereferenceable(4) %1, i32 noundef 3)
  %2 = getelementptr inbounds nuw %"class.llvm::GEPNoWrapFlags", ptr %1, i32 0, i32 0
  %3 = load i32, ptr %2, align 4
  ret i32 %3
}

; Function Attrs: mustprogress nounwind uwtable
define linkonce_odr hidden void @_ZN4llvm14GEPNoWrapFlagsC2Ev(ptr noundef nonnull align 4 dereferenceable(4) %0) unnamed_addr #0 comdat align 2 {
  %2 = alloca ptr, align 8
  store ptr %0, ptr %2, align 8
  %3 = load ptr, ptr %2, align 8
  %4 = getelementptr inbounds nuw %"class.llvm::GEPNoWrapFlags", ptr %3, i32 0, i32 0
  store i32 0, ptr %4, align 4
  ret void
}

; Function Attrs: mustprogress nounwind uwtable
define linkonce_odr hidden noundef ptr @_ZN4llvm4castINS_8ConstantENS_5ValueEEEDcPT0_(ptr noundef %0) #0 comdat {
  %2 = alloca ptr, align 8
  store ptr %0, ptr %2, align 8
  %3 = call noundef ptr @_ZN4llvm8CastInfoINS_8ConstantEPNS_5ValueEvE6doCastERKS3_(ptr noundef nonnull align 8 dereferenceable(8) %2)
  ret ptr %3
}

; Function Attrs: mustprogress nounwind uwtable
define linkonce_odr hidden noundef ptr @_ZN4llvm6unwrapEP15LLVMOpaqueValue(ptr noundef %0) #0 comdat {
  %2 = alloca ptr, align 8
  store ptr %0, ptr %2, align 8
  %3 = load ptr, ptr %2, align 8
  ret ptr %3
}

; Function Attrs: mustprogress nounwind uwtable
define linkonce_odr hidden void @_ZNSt8optionalIN4llvm13ConstantRangeEED2Ev(ptr noundef nonnull align 8 dereferenceable(40) %0) unnamed_addr #0 comdat align 2 {
  %2 = alloca ptr, align 8
  store ptr %0, ptr %2, align 8
  %3 = load ptr, ptr %2, align 8
  call void @_ZNSt14_Optional_baseIN4llvm13ConstantRangeELb0ELb0EED2Ev(ptr noundef nonnull align 8 dereferenceable(40) %3) #10
  ret void
}

; Function Attrs: mustprogress nounwind uwtable
define linkonce_odr hidden noundef ptr @_ZN4llvm4wrapEPKNS_5ValueE(ptr noundef %0) #0 comdat {
  %2 = alloca ptr, align 8
  store ptr %0, ptr %2, align 8
  %3 = load ptr, ptr %2, align 8
  ret ptr %3
}

; Function Attrs: mustprogress nounwind uwtable
define linkonce_odr hidden void @_ZNSt8optionalIN4llvm13ConstantRangeEEC2ESt9nullopt_t(ptr noundef nonnull align 8 dereferenceable(40) %0) unnamed_addr #0 comdat align 2 {
  %2 = alloca ptr, align 8
  store ptr %0, ptr %2, align 8
  %3 = load ptr, ptr %2, align 8
  call void @_ZNSt14_Optional_baseIN4llvm13ConstantRangeELb0ELb0EEC2Ev(ptr noundef nonnull align 8 dereferenceable(40) %3) #10
  ret void
}

; Function Attrs: mustprogress nounwind uwtable
define internal i32 @_ZL25mapFromLLVMGEPNoWrapFlagsj(i32 noundef %0) #0 {
  %2 = alloca %"class.llvm::GEPNoWrapFlags", align 4
  %3 = alloca i32, align 4
  %4 = alloca %"class.llvm::GEPNoWrapFlags", align 4
  %5 = alloca %"class.llvm::GEPNoWrapFlags", align 4
  %6 = alloca %"class.llvm::GEPNoWrapFlags", align 4
  store i32 %0, ptr %3, align 4
  call void @_ZN4llvm14GEPNoWrapFlagsC2Ev(ptr noundef nonnull align 4 dereferenceable(4) %2)
  %7 = load i32, ptr %3, align 4
  %8 = and i32 %7, 1
  %9 = icmp ne i32 %8, 0
  br i1 %9, label %10, label %16

10:                                               ; preds = %1
  %11 = call i32 @_ZN4llvm14GEPNoWrapFlags8inBoundsEv()
  %12 = getelementptr inbounds nuw %"class.llvm::GEPNoWrapFlags", ptr %4, i32 0, i32 0
  store i32 %11, ptr %12, align 4
  %13 = getelementptr inbounds nuw %"class.llvm::GEPNoWrapFlags", ptr %4, i32 0, i32 0
  %14 = load i32, ptr %13, align 4
  %15 = call noundef nonnull align 4 dereferenceable(4) ptr @_ZN4llvm14GEPNoWrapFlagsoRES0_(ptr noundef nonnull align 4 dereferenceable(4) %2, i32 %14)
  br label %16

16:                                               ; preds = %10, %1
  %17 = load i32, ptr %3, align 4
  %18 = and i32 %17, 2
  %19 = icmp ne i32 %18, 0
  br i1 %19, label %20, label %26

20:                                               ; preds = %16
  %21 = call i32 @_ZN4llvm14GEPNoWrapFlags20noUnsignedSignedWrapEv()
  %22 = getelementptr inbounds nuw %"class.llvm::GEPNoWrapFlags", ptr %5, i32 0, i32 0
  store i32 %21, ptr %22, align 4
  %23 = getelementptr inbounds nuw %"class.llvm::GEPNoWrapFlags", ptr %5, i32 0, i32 0
  %24 = load i32, ptr %23, align 4
  %25 = call noundef nonnull align 4 dereferenceable(4) ptr @_ZN4llvm14GEPNoWrapFlagsoRES0_(ptr noundef nonnull align 4 dereferenceable(4) %2, i32 %24)
  br label %26

26:                                               ; preds = %20, %16
  %27 = load i32, ptr %3, align 4
  %28 = and i32 %27, 4
  %29 = icmp ne i32 %28, 0
  br i1 %29, label %30, label %36

30:                                               ; preds = %26
  %31 = call i32 @_ZN4llvm14GEPNoWrapFlags14noUnsignedWrapEv()
  %32 = getelementptr inbounds nuw %"class.llvm::GEPNoWrapFlags", ptr %6, i32 0, i32 0
  store i32 %31, ptr %32, align 4
  %33 = getelementptr inbounds nuw %"class.llvm::GEPNoWrapFlags", ptr %6, i32 0, i32 0
  %34 = load i32, ptr %33, align 4
  %35 = call noundef nonnull align 4 dereferenceable(4) ptr @_ZN4llvm14GEPNoWrapFlagsoRES0_(ptr noundef nonnull align 4 dereferenceable(4) %2, i32 %34)
  br label %36

36:                                               ; preds = %30, %26
  %37 = getelementptr inbounds nuw %"class.llvm::GEPNoWrapFlags", ptr %2, i32 0, i32 0
  %38 = load i32, ptr %37, align 4
  ret i32 %38
}

; Function Attrs: mustprogress nounwind uwtable
define linkonce_odr hidden noundef ptr @_ZN4llvm6unwrapEP14LLVMOpaqueType(ptr noundef %0) #0 comdat {
  %2 = alloca ptr, align 8
  store ptr %0, ptr %2, align 8
  %3 = load ptr, ptr %2, align 8
  ret ptr %3
}

; Function Attrs: mustprogress nounwind uwtable
define linkonce_odr hidden noundef ptr @_ZN4llvm6unwrapINS_8ConstantEEEPT_P15LLVMOpaqueValue(ptr noundef %0) #0 comdat {
  %2 = alloca ptr, align 8
  store ptr %0, ptr %2, align 8
  %3 = load ptr, ptr %2, align 8
  %4 = call noundef ptr @_ZN4llvm6unwrapEP15LLVMOpaqueValue(ptr noundef %3)
  %5 = call noundef ptr @_ZN4llvm4castINS_8ConstantENS_5ValueEEEDcPT0_(ptr noundef %4)
  ret ptr %5
}

; Function Attrs: mustprogress nounwind uwtable
define linkonce_odr hidden void @_ZN4llvm8ArrayRefIPNS_8ConstantEEC2EPKS2_m(ptr noundef nonnull align 8 dereferenceable(16) %0, ptr noundef %1, i64 noundef %2) unnamed_addr #0 comdat align 2 {
  %4 = alloca ptr, align 8
  %5 = alloca ptr, align 8
  %6 = alloca i64, align 8
  store ptr %0, ptr %4, align 8
  store ptr %1, ptr %5, align 8
  store i64 %2, ptr %6, align 8
  %7 = load ptr, ptr %4, align 8
  %8 = getelementptr inbounds nuw %"class.llvm::ArrayRef.170", ptr %7, i32 0, i32 0
  %9 = load ptr, ptr %5, align 8
  store ptr %9, ptr %8, align 8
  %10 = getelementptr inbounds nuw %"class.llvm::ArrayRef.170", ptr %7, i32 0, i32 1
  %11 = load i64, ptr %6, align 8
  store i64 %11, ptr %10, align 8
  ret void
}

; Function Attrs: mustprogress nounwind uwtable
define linkonce_odr hidden noundef ptr @_ZN4llvm6unwrapINS_8ConstantEEEPPT_PP15LLVMOpaqueValuej(ptr noundef %0, i32 noundef %1) #0 comdat {
  %3 = alloca ptr, align 8
  %4 = alloca i32, align 4
  store ptr %0, ptr %3, align 8
  store i32 %1, ptr %4, align 4
  %5 = load ptr, ptr %3, align 8
  ret ptr %5
}

; Function Attrs: mustprogress nounwind uwtable
define dso_local ptr @LLVMConstGEPWithNoWrapFlags(ptr noundef %0, ptr noundef %1, ptr noundef %2, i32 noundef %3, i32 noundef %4) #0 {
  %6 = alloca ptr, align 8
  %7 = alloca ptr, align 8
  %8 = alloca ptr, align 8
  %9 = alloca i32, align 4
  %10 = alloca i32, align 4
  %11 = alloca %"class.llvm::ArrayRef.170", align 8
  %12 = alloca ptr, align 8
  %13 = alloca %"class.llvm::ArrayRef.170", align 8
  %14 = alloca %"class.llvm::GEPNoWrapFlags", align 4
  %15 = alloca %"class.std::optional.171", align 8
  store ptr %0, ptr %6, align 8
  store ptr %1, ptr %7, align 8
  store ptr %2, ptr %8, align 8
  store i32 %3, ptr %9, align 4
  store i32 %4, ptr %10, align 4
  %16 = load ptr, ptr %8, align 8
  %17 = load i32, ptr %9, align 4
  %18 = call noundef ptr @_ZN4llvm6unwrapINS_8ConstantEEEPPT_PP15LLVMOpaqueValuej(ptr noundef %16, i32 noundef %17)
  %19 = load i32, ptr %9, align 4
  %20 = zext i32 %19 to i64
  call void @_ZN4llvm8ArrayRefIPNS_8ConstantEEC2EPKS2_m(ptr noundef nonnull align 8 dereferenceable(16) %11, ptr noundef %18, i64 noundef %20)
  %21 = load ptr, ptr %7, align 8
  %22 = call noundef ptr @_ZN4llvm6unwrapINS_8ConstantEEEPT_P15LLVMOpaqueValue(ptr noundef %21)
  store ptr %22, ptr %12, align 8
  %23 = load ptr, ptr %6, align 8
  %24 = call noundef ptr @_ZN4llvm6unwrapEP14LLVMOpaqueType(ptr noundef %23)
  %25 = load ptr, ptr %12, align 8
  call void @llvm.memcpy.p0.p0.i64(ptr align 8 %13, ptr align 8 %11, i64 16, i1 false)
  %26 = load i32, ptr %10, align 4
  %27 = call i32 @_ZL25mapFromLLVMGEPNoWrapFlagsj(i32 noundef %26)
  %28 = getelementptr inbounds nuw %"class.llvm::GEPNoWrapFlags", ptr %14, i32 0, i32 0
  store i32 %27, ptr %28, align 4
  call void @_ZNSt8optionalIN4llvm13ConstantRangeEEC2ESt9nullopt_t(ptr noundef nonnull align 8 dereferenceable(40) %15) #10
  %29 = getelementptr inbounds nuw { ptr, i64 }, ptr %13, i32 0, i32 0
  %30 = load ptr, ptr %29, align 8
  %31 = getelementptr inbounds nuw { ptr, i64 }, ptr %13, i32 0, i32 1
  %32 = load i64, ptr %31, align 8
  %33 = getelementptr inbounds nuw %"class.llvm::GEPNoWrapFlags", ptr %14, i32 0, i32 0
  %34 = load i32, ptr %33, align 4
  %35 = call noundef ptr @_ZN4llvm12ConstantExpr16getGetElementPtrEPNS_4TypeEPNS_8ConstantENS_8ArrayRefIS4_EENS_14GEPNoWrapFlagsESt8optionalINS_13ConstantRangeEES2_(ptr noundef %24, ptr noundef %25, ptr %30, i64 %32, i32 %34, ptr noundef %15, ptr noundef null)
  %36 = call noundef ptr @_ZN4llvm4wrapEPKNS_5ValueE(ptr noundef %35)
  call void @_ZNSt8optionalIN4llvm13ConstantRangeEED2Ev(ptr noundef nonnull align 8 dereferenceable(40) %15) #10
  ret ptr %36
}