; Function Attrs: mustprogress nounwind uwtable
define dso_local noundef ptr @LLVMConstGEPWithNoWrapFlags(ptr noundef %0, ptr noundef %1, ptr noundef %2, i32 noundef %3, i32 noundef %4) local_unnamed_addr #0 {
  %6 = alloca %"class.std::optional.171", align 8
  %7 = zext i32 %3 to i64
  %8 = and i32 %4, 1
  %.not.i = icmp eq i32 %8, 0
  %spec.select.i = select i1 %.not.i, i32 0, i32 3
  %9 = and i32 %4, 6
  %.sroa.0.2.i = or i32 %spec.select.i, %9
  %10 = getelementptr inbounds nuw i8, ptr %6, i64 32
  store i8 0, ptr %10, align 8
  %11 = call noundef ptr @_ZN4llvm12ConstantExpr16getGetElementPtrEPNS_4TypeEPNS_8ConstantENS_8ArrayRefIS4_EENS_14GEPNoWrapFlagsESt8optionalINS_13ConstantRangeEES2_(ptr noundef %0, ptr noundef %1, ptr %2, i64 %7, i32 %.sroa.0.2.i, ptr noundef nonnull %6, ptr noundef null)
  %12 = load i8, ptr %10, align 8
  %13 = trunc i8 %12 to i1
  br i1 %13, label %14, label %_ZNSt8optionalIN4llvm13ConstantRangeEED2Ev.exit

14:                                               ; preds = %5
  store i8 0, ptr %10, align 8
  %15 = getelementptr inbounds nuw i8, ptr %6, i64 24
  %16 = load i32, ptr %15, align 8
  %17 = icmp ugt i32 %16, 64
  br i1 %17, label %18, label %_ZN4llvm5APIntD2Ev.exit.i.i.i.i.i.i

18:                                               ; preds = %14
  %19 = getelementptr inbounds nuw i8, ptr %6, i64 16
  %20 = load ptr, ptr %19, align 8
  %21 = icmp eq ptr %20, null
  br i1 %21, label %_ZN4llvm5APIntD2Ev.exit.i.i.i.i.i.i, label %22

22:                                               ; preds = %18
  call void @_ZdaPv(ptr noundef nonnull %20) #37
  br label %_ZN4llvm5APIntD2Ev.exit.i.i.i.i.i.i

_ZN4llvm5APIntD2Ev.exit.i.i.i.i.i.i:              ; preds = %22, %18, %14
  %23 = getelementptr inbounds nuw i8, ptr %6, i64 8
  %24 = load i32, ptr %23, align 8
  %25 = icmp ugt i32 %24, 64
  br i1 %25, label %26, label %_ZNSt8optionalIN4llvm13ConstantRangeEED2Ev.exit

26:                                               ; preds = %_ZN4llvm5APIntD2Ev.exit.i.i.i.i.i.i
  %27 = load ptr, ptr %6, align 8
  %28 = icmp eq ptr %27, null
  br i1 %28, label %_ZNSt8optionalIN4llvm13ConstantRangeEED2Ev.exit, label %29

29:                                               ; preds = %26
  call void @_ZdaPv(ptr noundef nonnull %27) #37
  br label %_ZNSt8optionalIN4llvm13ConstantRangeEED2Ev.exit

_ZNSt8optionalIN4llvm13ConstantRangeEED2Ev.exit:  ; preds = %5, %_ZN4llvm5APIntD2Ev.exit.i.i.i.i.i.i, %26, %29
  ret ptr %11
}